; Function Attrs: nounwind uwtable
define internal void @fn_timer(ptr noundef readonly captures(none) %0, ptr noundef readonly captures(none) %1, i32 noundef %2) #0 {
  %4 = alloca %struct.strbuf, align 8
  %.not = icmp eq i32 %2, 0
  %5 = select i1 %.not, ptr @.str.63, ptr @.str.62
  call void @llvm.lifetime.start.p0(i64 24, ptr nonnull %4) #7
  call void @llvm.memcpy.p0.p0.i64(ptr noundef nonnull align 8 dereferenceable(24) %4, ptr noundef nonnull align 8 dereferenceable(24) @__const.fn_counter.buf_payload, i64 24, i1 false)
  %6 = load i64, ptr %1, align 8, !tbaa !49
  %7 = uitofp i64 %6 to double
  %8 = fdiv double %7, 1.000000e+09
  %9 = getelementptr inbounds nuw i8, ptr %1, i64 8
  %10 = load i64, ptr %9, align 8, !tbaa !51
  %11 = uitofp i64 %10 to double
  %12 = fdiv double %11, 1.000000e+09
  %13 = getelementptr inbounds nuw i8, ptr %1, i64 16
  %14 = load i64, ptr %13, align 8, !tbaa !52
  %15 = uitofp i64 %14 to double
  %16 = fdiv double %15, 1.000000e+09
  %17 = getelementptr inbounds nuw i8, ptr %0, i64 8
  %18 = load ptr, ptr %17, align 8, !tbaa !53
  %19 = getelementptr inbounds nuw i8, ptr %1, i64 32
  %20 = load i64, ptr %19, align 8, !tbaa !55
  call void (ptr, ptr, ...) @strbuf_addf(ptr noundef nonnull %4, ptr noundef nonnull @.str.64, ptr noundef %18, i64 noundef %20, double noundef %8, double noundef %12, double noundef %16) #7
  %21 = load ptr, ptr %0, align 8, !tbaa !56
  call fastcc void @perf_io_write_fl(ptr noundef nonnull @.str.20, i32 noundef 580, ptr noundef nonnull %5, ptr noundef null, ptr noundef null, ptr noundef null, ptr noundef %21, ptr noundef %4)
  call void @strbuf_release(ptr noundef nonnull %4) #7
  call void @llvm.lifetime.end.p0(i64 24, ptr nonnull %4) #7
  ret void
}